target datalayout = "e-m:e-p270:32:32-p271:32:32-p272:64:64-i64:64-i128:128-f80:128-n8:16:32:64-S128"
target triple = "x86_64-pc-linux-gnu"

%struct.expert_field = type { i32, i32 }
%struct.MessageHeader = type { [4 x i8], %struct.Version, i8, i8, i32, i32, i32, ptr }
%struct.Version = type { i8, i8 }

@hf_Tango_Device_2_command_query_2_command = internal global i32 0, align 4
@ei_tango_unknown_giop_msg = internal global %struct.expert_field zeroinitializer, align 4
@ei_tango_unknown_exception = internal global %struct.expert_field zeroinitializer, align 4
@ett_giop_struct = internal global i32 0, align 4
@boundary = internal global i32 12, align 4
@.str.771 = private unnamed_addr constant [21 x i8] c"Unknown exception %d\00", align 1
@.str.772 = private unnamed_addr constant [24 x i8] c"Unknown GIOP message %d\00", align 1
@.str.878 = private unnamed_addr constant [26 x i8] c"struct Tango_DevCmdInfo_2\00", align 1

; Function Attrs: null_pointer_is_valid sspstrong uwtable
define internal void @decode_Tango_Device_2_command_query_2(ptr noundef %0, ptr noundef %1, ptr noundef %2, ptr noundef %3, ptr noundef %4, ptr noundef %5, ptr noundef %6, i1 noundef zeroext %7) #0 {
  %9 = alloca ptr, align 8
  %10 = alloca ptr, align 8
  %11 = alloca ptr, align 8
  %12 = alloca ptr, align 8
  %13 = alloca ptr, align 8
  %14 = alloca ptr, align 8
  %15 = alloca ptr, align 8
  %16 = alloca i8, align 1
  %17 = alloca ptr, align 8
  store ptr %0, ptr %9, align 8
  store ptr %1, ptr %10, align 8
  store ptr %2, ptr %11, align 8
  store ptr %3, ptr %12, align 8
  store ptr %4, ptr %13, align 8
  store ptr %5, ptr %14, align 8
  store ptr %6, ptr %15, align 8
  %18 = zext i1 %7 to i8
  store i8 %18, ptr %16, align 1
  %19 = load ptr, ptr %14, align 8
  %20 = getelementptr inbounds nuw %struct.MessageHeader, ptr %19, i32 0, i32 3
  %21 = load i8, ptr %20, align 1
  %22 = zext i8 %21 to i32
  switch i32 %22, label %59 [
    i32 0, label %23
    i32 1, label %31
  ]

23:                                               ; preds = %8
  %24 = load ptr, ptr %11, align 8
  %25 = load ptr, ptr %9, align 8
  %26 = load ptr, ptr %13, align 8
  %27 = load i8, ptr %16, align 1, !range !6, !noundef !7
  %28 = trunc i8 %27 to i1
  %29 = load i32, ptr @boundary, align 4
  %30 = load i32, ptr @hf_Tango_Device_2_command_query_2_command, align 4
  call void @giop_add_CDR_string(ptr noundef %24, ptr noundef %25, ptr noundef %26, i1 noundef zeroext %28, i32 noundef %29, i32 noundef %30)
  br label %67

31:                                               ; preds = %8
  %32 = load ptr, ptr %14, align 8
  %33 = getelementptr inbounds nuw %struct.MessageHeader, ptr %32, i32 0, i32 6
  %34 = load i32, ptr %33, align 8
  switch i32 %34, label %51 [
    i32 0, label %35
    i32 1, label %58
  ]

35:                                               ; preds = %31
  call void @llvm.lifetime.start.p0(i64 8, ptr %17) #6
  %36 = load ptr, ptr %11, align 8
  %37 = load ptr, ptr %9, align 8
  %38 = load ptr, ptr %13, align 8
  %39 = load i32, ptr %38, align 4
  %40 = load i32, ptr @ett_giop_struct, align 4
  %41 = call ptr @proto_tree_add_subtree(ptr noundef %36, ptr noundef %37, i32 noundef %39, i32 noundef -1, i32 noundef %40, ptr noundef null, ptr noundef @.str.878)
  store ptr %41, ptr %17, align 8
  %42 = load ptr, ptr %9, align 8
  %43 = load ptr, ptr %10, align 8
  %44 = load ptr, ptr %17, align 8
  %45 = load ptr, ptr %12, align 8
  %46 = load ptr, ptr %13, align 8
  %47 = load ptr, ptr %14, align 8
  %48 = load ptr, ptr %15, align 8
  %49 = load i8, ptr %16, align 1, !range !6, !noundef !7
  %50 = trunc i8 %49 to i1
  call void @decode_Tango_DevCmdInfo_2_st(ptr noundef %42, ptr noundef %43, ptr noundef %44, ptr noundef %45, ptr noundef %46, ptr noundef %47, ptr noundef %48, i1 noundef zeroext %50)
  call void @llvm.lifetime.end.p0(i64 8, ptr %17) #6
  br label %58

51:                                               ; preds = %31
  %52 = load ptr, ptr %10, align 8
  %53 = load ptr, ptr %12, align 8
  %54 = load ptr, ptr %14, align 8
  %55 = getelementptr inbounds nuw %struct.MessageHeader, ptr %54, i32 0, i32 6
  %56 = load i32, ptr %55, align 8
  %57 = call ptr (ptr, ptr, ptr, ptr, ...) @expert_add_info_format(ptr noundef %52, ptr noundef %53, ptr noundef @ei_tango_unknown_exception, ptr noundef @.str.771, i32 noundef %56)
  br label %58

58:                                               ; preds = %51, %31, %35
  br label %67

59:                                               ; preds = %8
  %60 = load ptr, ptr %10, align 8
  %61 = load ptr, ptr %12, align 8
  %62 = load ptr, ptr %14, align 8
  %63 = getelementptr inbounds nuw %struct.MessageHeader, ptr %62, i32 0, i32 3
  %64 = load i8, ptr %63, align 1
  %65 = zext i8 %64 to i32
  %66 = call ptr (ptr, ptr, ptr, ptr, ...) @expert_add_info_format(ptr noundef %60, ptr noundef %61, ptr noundef @ei_tango_unknown_giop_msg, ptr noundef @.str.772, i32 noundef %65)
  br label %67

67:                                               ; preds = %59, %58, %23
  ret void
}