; Function Attrs: null_pointer_is_valid sspstrong uwtable
define internal fastcc void @decode_Tango_Device_2_command_query_2(ptr noundef %0, ptr noundef %1, ptr noundef %2, ptr noundef %3, ptr noundef %4, ptr noundef readonly captures(none) %5, i1 noundef zeroext %6) unnamed_addr #0 {
  %8 = getelementptr inbounds nuw i8, ptr %5, i64 7
  %9 = load i8, ptr %8, align 1
  switch i8 %9, label %21 [
    i8 0, label %10
    i8 1, label %12
  ]

10:                                               ; preds = %7
  %11 = load i32, ptr @hf_Tango_Device_2_command_query_2_command, align 4
  tail call void @giop_add_CDR_string(ptr noundef %2, ptr noundef %0, ptr noundef %4, i1 noundef zeroext %6, i32 noundef 12, i32 noundef %11)
  br label %24

12:                                               ; preds = %7
  %13 = getelementptr inbounds nuw i8, ptr %5, i64 16
  %14 = load i32, ptr %13, align 8
  switch i32 %14, label %19 [
    i32 0, label %15
    i32 1, label %24
  ]

15:                                               ; preds = %12
  %16 = load i32, ptr %4, align 4
  %17 = load i32, ptr @ett_giop_struct, align 4
  %18 = tail call ptr @proto_tree_add_subtree(ptr noundef %2, ptr noundef %0, i32 noundef %16, i32 noundef -1, i32 noundef %17, ptr noundef null, ptr noundef nonnull @.str.878)
  tail call fastcc void @decode_Tango_DevCmdInfo_2_st(ptr noundef %0, ptr noundef %18, ptr noundef %4, i1 noundef zeroext %6)
  br label %24

19:                                               ; preds = %12
  %20 = tail call ptr (ptr, ptr, ptr, ptr, ...) @expert_add_info_format(ptr noundef %1, ptr noundef %3, ptr noundef nonnull @ei_tango_unknown_exception, ptr noundef nonnull @.str.771, i32 noundef %14)
  br label %24

21:                                               ; preds = %7
  %22 = zext i8 %9 to i32
  %23 = tail call ptr (ptr, ptr, ptr, ptr, ...) @expert_add_info_format(ptr noundef %1, ptr noundef %3, ptr noundef nonnull @ei_tango_unknown_giop_msg, ptr noundef nonnull @.str.772, i32 noundef %22)
  br label %24

24:                                               ; preds = %12, %15, %19, %21, %10
  ret void
}